; Function Attrs: mustprogress uwtable
define hidden void @_ZN4cvc58internal6theory2bv5utils8mkConcatENS0_12NodeTemplateILb0EEEj(ptr dead_on_unwind noalias writable sret(%"class.cvc5::internal::NodeTemplate.0") align 8 %0, ptr noundef readonly captures(none) %1, i32 noundef %2) local_unnamed_addr #3 personality ptr @__gxx_personality_v0 {
  %4 = alloca %"class.cvc5::internal::NodeBuilder", align 8
  %5 = alloca %"class.cvc5::internal::NodeTemplate", align 8
  %6 = icmp eq i32 %2, 1
  br i1 %6, label %7, label %23

7:                                                ; preds = %3
  %8 = load ptr, ptr %1, align 8, !tbaa !10
  store ptr %8, ptr %0, align 8, !tbaa !21
  %9 = load i64, ptr %8, align 8
  %10 = lshr i64 %9, 40
  %11 = trunc nuw nsw i64 %10 to i32
  %12 = and i32 %11, 1048575
  %13 = icmp samesign ult i32 %12, 1048574
  br i1 %13, label %14, label %19, !prof !29

14:                                               ; preds = %7
  %15 = add i64 %9, 1099511627776
  %16 = and i64 %15, 1152920405095219200
  %17 = and i64 %9, -1152920405095219201
  %18 = or disjoint i64 %16, %17
  store i64 %18, ptr %8, align 8
  br label %_ZN4cvc58internal12NodeTemplateILb1EEC2ERKNS1_ILb0EEE.exit

19:                                               ; preds = %7
  %20 = icmp eq i32 %12, 1048574
  br i1 %20, label %21, label %_ZN4cvc58internal12NodeTemplateILb1EEC2ERKNS1_ILb0EEE.exit, !prof !9

21:                                               ; preds = %19
  %22 = or i64 %9, 1152920405095219200
  store i64 %22, ptr %8, align 8
  tail call void @_ZN4cvc58internal4expr9NodeValue20markRefCountMaxedOutEv(ptr noundef nonnull align 8 dereferenceable(24) %8)
  br label %_ZN4cvc58internal12NodeTemplateILb1EEC2ERKNS1_ILb0EEE.exit

23:                                               ; preds = %3
  call void @llvm.lifetime.start.p0(i64 128, ptr nonnull %4) #22
  %24 = load ptr, ptr %1, align 8, !tbaa !10
  %25 = getelementptr inbounds nuw i8, ptr %24, i64 16
  %26 = load ptr, ptr %25, align 8, !tbaa !26
  call void @_ZN4cvc58internal11NodeBuilderC1EPNS0_11NodeManagerENS0_4kind6Kind_tE(ptr noundef nonnull align 8 dereferenceable(124) %4, ptr noundef %26, i32 noundef 92)
  %.not = icmp eq i32 %2, 0
  br i1 %.not, label %._crit_edge, label %.lr.ph

._crit_edge:                                      ; preds = %29, %23
  invoke void @_ZN4cvc58internal11NodeBuildercvNS0_12NodeTemplateILb1EEEEv(ptr dead_on_unwind writable sret(%"class.cvc5::internal::NodeTemplate.0") align 8 %0, ptr noundef nonnull align 8 dereferenceable(124) %4)
          to label %35 unwind label %33

.lr.ph:                                           ; preds = %23, %29
  %.0710 = phi i32 [ %30, %29 ], [ 0, %23 ]
  %27 = load ptr, ptr %1, align 8, !tbaa !10
  store ptr %27, ptr %5, align 8, !tbaa !10
  %28 = invoke noundef nonnull align 8 dereferenceable(124) ptr @_ZN4cvc58internal11NodeBuilderlsENS0_12NodeTemplateILb0EEE(ptr noundef nonnull align 8 dereferenceable(124) %4, ptr noundef nonnull %5)
          to label %29 unwind label %31

29:                                               ; preds = %.lr.ph
  %30 = add nuw i32 %.0710, 1
  %exitcond.not = icmp eq i32 %30, %2
  br i1 %exitcond.not, label %._crit_edge, label %.lr.ph, !llvm.loop !154

31:                                               ; preds = %.lr.ph
  %32 = landingpad { ptr, i32 }
          cleanup
  br label %36

33:                                               ; preds = %._crit_edge
  %34 = landingpad { ptr, i32 }
          cleanup
  br label %36

35:                                               ; preds = %._crit_edge
  call void @_ZN4cvc58internal11NodeBuilderD1Ev(ptr noundef nonnull align 8 dereferenceable(124) %4) #22
  call void @llvm.lifetime.end.p0(i64 128, ptr nonnull %4) #22
  br label %_ZN4cvc58internal12NodeTemplateILb1EEC2ERKNS1_ILb0EEE.exit

36:                                               ; preds = %33, %31
  %.pn = phi { ptr, i32 } [ %32, %31 ], [ %34, %33 ]
  call void @_ZN4cvc58internal11NodeBuilderD1Ev(ptr noundef nonnull align 8 dereferenceable(124) %4) #22
  call void @llvm.lifetime.end.p0(i64 128, ptr nonnull %4) #22
  resume { ptr, i32 } %.pn

_ZN4cvc58internal12NodeTemplateILb1EEC2ERKNS1_ILb0EEE.exit: ; preds = %21, %19, %14, %35
  ret void
}